; Function Attrs: nounwind uwtable
define i32 @SSL_use_RSAPrivateKey(ptr noundef %0, ptr noundef %1) local_unnamed_addr #0 {
  %3 = icmp eq ptr %1, null
  br i1 %3, label %4, label %5

4:                                                ; preds = %2
  tail call void @ERR_new() #3
  tail call void @ERR_set_debug(ptr noundef nonnull @.str, i32 noundef 23, ptr noundef nonnull @__func__.SSL_use_RSAPrivateKey) #3
  tail call void (i32, i32, ptr, ...) @ERR_set_error(i32 noundef 20, i32 noundef 786690, ptr noundef null) #3
  br label %16

5:                                                ; preds = %2
  %6 = tail call ptr @EVP_PKEY_new() #3
  %7 = icmp eq ptr %6, null
  br i1 %7, label %8, label %9

8:                                                ; preds = %5
  tail call void @ERR_new() #3
  tail call void @ERR_set_debug(ptr noundef nonnull @.str, i32 noundef 27, ptr noundef nonnull @__func__.SSL_use_RSAPrivateKey) #3
  tail call void (i32, i32, ptr, ...) @ERR_set_error(i32 noundef 20, i32 noundef 524294, ptr noundef null) #3
  br label %16

9:                                                ; preds = %5
  %10 = tail call i32 @RSA_up_ref(ptr noundef nonnull %1) #3
  %11 = tail call i32 @EVP_PKEY_assign(ptr noundef nonnull %6, i32 noundef 6, ptr noundef nonnull %1) #3
  %12 = icmp slt i32 %11, 1
  br i1 %12, label %13, label %14

13:                                               ; preds = %9
  tail call void @RSA_free(ptr noundef nonnull %1) #3
  tail call void @EVP_PKEY_free(ptr noundef nonnull %6) #3
  br label %16

14:                                               ; preds = %9
  %15 = tail call i32 @SSL_use_PrivateKey(ptr noundef %0, ptr noundef nonnull %6) #3
  tail call void @EVP_PKEY_free(ptr noundef nonnull %6) #3
  br label %16

16:                                               ; preds = %14, %13, %8, %4
  %.0 = phi i32 [ 0, %4 ], [ 0, %8 ], [ 0, %13 ], [ %15, %14 ]
  ret i32 %.0
}